; ModuleID = '30/2714.c'
source_filename = "30/2714.c"
target datalayout = "e-m:e-p270:32:32-p271:32:32-p272:64:64-i64:64-f80:128-n8:16:32:64-S128"
target triple = "x86_64-pc-linux-gnu"

@.str = private unnamed_addr constant [3 x i8] c"%d\00", align 1
@.str.1 = private unnamed_addr constant [4 x i8] c"%d\0A\00", align 1

; Function Attrs: noinline nounwind uwtable
define dso_local i32 @main() #0 {
  %1 = alloca i32, align 4
  %2 = alloca i32, align 4
  %3 = alloca i32, align 4
  %4 = alloca i32, align 4
  %5 = alloca i32, align 4
  %6 = alloca i32, align 4
  store i32 0, i32* %1, align 4
  store i32 0, i32* %5, align 4
  %7 = call i32 (i8*, ...) @__isoc99_scanf(i8* getelementptr inbounds ([3 x i8], [3 x i8]* @.str, i64 0, i64 0), i32* %4)
  store i32 1, i32* %6, align 4
  br label %8

8:                                                ; preds = %74, %0
  %9 = load i32, i32* %6, align 4
  %10 = load i32, i32* %4, align 4
  %11 = icmp sle i32 %9, %10
  br i1 %11, label %12, label %77

12:                                               ; preds = %8
  %13 = load i32, i32* %6, align 4
  %14 = sdiv i32 %13, 10
  store i32 %14, i32* %2, align 4
  %15 = load i32, i32* %6, align 4
  %16 = load i32, i32* %2, align 4
  %17 = mul nsw i32 %16, 10
  %18 = sub nsw i32 %15, %17
  store i32 %18, i32* %3, align 4
  %19 = load i32, i32* %2, align 4
  %20 = icmp ne i32 %19, 0
  br i1 %20, label %21, label %42

21:                                               ; preds = %12
  %22 = load i32, i32* %3, align 4
  %23 = icmp ne i32 %22, 0
  br i1 %23, label %24, label %42

24:                                               ; preds = %21
  %25 = load i32, i32* %2, align 4
  %26 = srem i32 %25, 7
  %27 = icmp ne i32 %26, 0
  br i1 %27, label %28, label %42

28:                                               ; preds = %24
  %29 = load i32, i32* %3, align 4
  %30 = srem i32 %29, 7
  %31 = icmp ne i32 %30, 0
  br i1 %31, label %32, label %42

32:                                               ; preds = %28
  %33 = load i32, i32* %6, align 4
  %34 = srem i32 %33, 7
  %35 = icmp ne i32 %34, 0
  br i1 %35, label %36, label %42

36:                                               ; preds = %32
  %37 = load i32, i32* %5, align 4
  %38 = load i32, i32* %6, align 4
  %39 = load i32, i32* %6, align 4
  %40 = mul nsw i32 %38, %39
  %41 = add nsw i32 %37, %40
  store i32 %41, i32* %5, align 4
  br label %73

42:                                               ; preds = %32, %28, %24, %21, %12
  %43 = load i32, i32* %2, align 4
  %44 = icmp eq i32 %43, 0
  br i1 %44, label %45, label %55

45:                                               ; preds = %42
  %46 = load i32, i32* %6, align 4
  %47 = srem i32 %46, 7
  %48 = icmp ne i32 %47, 0
  br i1 %48, label %49, label %55

49:                                               ; preds = %45
  %50 = load i32, i32* %5, align 4
  %51 = load i32, i32* %6, align 4
  %52 = load i32, i32* %6, align 4
  %53 = mul nsw i32 %51, %52
  %54 = add nsw i32 %50, %53
  store i32 %54, i32* %5, align 4
  br label %72

55:                                               ; preds = %45, %42
  %56 = load i32, i32* %2, align 4
  %57 = icmp ne i32 %56, 0
  br i1 %57, label %58, label %71

58:                                               ; preds = %55
  %59 = load i32, i32* %3, align 4
  %60 = icmp eq i32 %59, 0
  br i1 %60, label %61, label %71

61:                                               ; preds = %58
  %62 = load i32, i32* %6, align 4
  %63 = srem i32 %62, 7
  %64 = icmp ne i32 %63, 0
  br i1 %64, label %65, label %71

65:                                               ; preds = %61
  %66 = load i32, i32* %5, align 4
  %67 = load i32, i32* %6, align 4
  %68 = load i32, i32* %6, align 4
  %69 = mul nsw i32 %67, %68
  %70 = add nsw i32 %66, %69
  store i32 %70, i32* %5, align 4
  br label %71

71:                                               ; preds = %65, %61, %58, %55
  br label %72

72:                                               ; preds = %71, %49
  br label %73

73:                                               ; preds = %72, %36
  br label %74

74:                                               ; preds = %73
  %75 = load i32, i32* %6, align 4
  %76 = add nsw i32 %75, 1
  store i32 %76, i32* %6, align 4
  br label %8

77:                                               ; preds = %8
  %78 = load i32, i32* %5, align 4
  %79 = call i32 (i8*, ...) @printf(i8* getelementptr inbounds ([4 x i8], [4 x i8]* @.str.1, i64 0, i64 0), i32 %78)
  ret i32 0
}

declare dso_local i32 @__isoc99_scanf(i8*, ...) #1

declare dso_local i32 @printf(i8*, ...) #1


!llvm.module.flags = !{!0}
!llvm.ident = !{!1}

!0 = !{i32 1, !"wchar_size", i32 4}
!1 = !{!"clang version 10.0.0-4ubuntu1 "}
